target datalayout = "e-m:e-p270:32:32-p271:32:32-p272:64:64-i64:64-i128:128-f80:128-n8:16:32:64-S128"
target triple = "x86_64-pc-linux-gnu"

%struct.archive_read = type { %struct.archive, ptr, i32, i64, i64, %struct.archive_read_client, [16 x %struct.archive_read_filter_bidder], ptr, i32, i64, i32, i32, [16 x %struct.archive_format_descriptor], ptr, ptr, ptr, %struct.anon }
%struct.archive = type { i32, i32, ptr, i32, ptr, i32, i32, ptr, %struct.archive_string, ptr, i32, i32, ptr, ptr, i64, i64, i64, i8, i64 }
%struct.archive_string = type { ptr, i64, i64 }
%struct.archive_read_client = type { ptr, ptr, ptr, ptr, ptr, ptr, i32, i32, i64, ptr }
%struct.archive_read_filter_bidder = type { ptr, ptr, ptr }
%struct.archive_format_descriptor = type { ptr, ptr, ptr, ptr, ptr, ptr, ptr, ptr, ptr, ptr, ptr }
%struct.anon = type { ptr, ptr, i32, ptr, ptr }
%struct.archive_read_filter_bidder_vtable = type { ptr, ptr, ptr }

@.str.21 = private unnamed_addr constant [31 x i8] c"__archive_read_register_bidder\00", align 1
@.str.22 = private unnamed_addr constant [46 x i8] c"Internal error: no bid/init for filter bidder\00", align 1
@.str.23 = private unnamed_addr constant [41 x i8] c"Not enough slots for filter registration\00", align 1

; Function Attrs: nounwind uwtable
define dso_local i32 @__archive_read_register_bidder(ptr noundef %0, ptr noundef %1, ptr noundef %2, ptr noundef %3) #0 {
  %5 = alloca i32, align 4
  %6 = alloca ptr, align 8
  %7 = alloca ptr, align 8
  %8 = alloca ptr, align 8
  %9 = alloca ptr, align 8
  %10 = alloca ptr, align 8
  %11 = alloca i32, align 4
  %12 = alloca i32, align 4
  %13 = alloca i32, align 4
  %14 = alloca i32, align 4
  store ptr %0, ptr %6, align 8, !tbaa !4
  store ptr %1, ptr %7, align 8, !tbaa !37
  store ptr %2, ptr %8, align 8, !tbaa !95
  store ptr %3, ptr %9, align 8, !tbaa !114
  call void @llvm.lifetime.start.p0(i64 8, ptr %10) #11
  call void @llvm.lifetime.start.p0(i64 4, ptr %11) #11
  call void @llvm.lifetime.start.p0(i64 4, ptr %12) #11
  br label %15

15:                                               ; preds = %4
  call void @llvm.lifetime.start.p0(i64 4, ptr %13) #11
  %16 = load ptr, ptr %6, align 8, !tbaa !4
  %17 = getelementptr inbounds nuw %struct.archive_read, ptr %16, i32 0, i32 0
  %18 = call i32 @__archive_check_magic(ptr noundef %17, i32 noundef 14594245, i32 noundef 1, ptr noundef @.str.21)
  store i32 %18, ptr %13, align 4, !tbaa !38
  %19 = load i32, ptr %13, align 4, !tbaa !38
  %20 = icmp eq i32 %19, -30
  br i1 %20, label %21, label %22

21:                                               ; preds = %15
  store i32 -30, ptr %5, align 4
  store i32 1, ptr %14, align 4
  br label %23

22:                                               ; preds = %15
  store i32 0, ptr %14, align 4
  br label %23

23:                                               ; preds = %22, %21
  call void @llvm.lifetime.end.p0(i64 4, ptr %13) #11
  %24 = load i32, ptr %14, align 4
  switch i32 %24, label %87 [
    i32 0, label %25
  ]

25:                                               ; preds = %23
  br label %26

26:                                               ; preds = %25
  br label %27

27:                                               ; preds = %26
  store i32 16, ptr %12, align 4, !tbaa !38
  store i32 0, ptr %11, align 4, !tbaa !38
  br label %28

28:                                               ; preds = %81, %27
  %29 = load i32, ptr %11, align 4, !tbaa !38
  %30 = load i32, ptr %12, align 4, !tbaa !38
  %31 = icmp slt i32 %29, %30
  br i1 %31, label %32, label %84

32:                                               ; preds = %28
  %33 = load ptr, ptr %6, align 8, !tbaa !4
  %34 = getelementptr inbounds nuw %struct.archive_read, ptr %33, i32 0, i32 6
  %35 = load i32, ptr %11, align 4, !tbaa !38
  %36 = sext i32 %35 to i64
  %37 = getelementptr inbounds [16 x %struct.archive_read_filter_bidder], ptr %34, i64 0, i64 %36
  %38 = getelementptr inbounds nuw %struct.archive_read_filter_bidder, ptr %37, i32 0, i32 2
  %39 = load ptr, ptr %38, align 8, !tbaa !72
  %40 = icmp ne ptr %39, null
  br i1 %40, label %41, label %42

41:                                               ; preds = %32
  br label %81

42:                                               ; preds = %32
  %43 = load ptr, ptr %6, align 8, !tbaa !4
  %44 = getelementptr inbounds nuw %struct.archive_read, ptr %43, i32 0, i32 6
  %45 = getelementptr inbounds [16 x %struct.archive_read_filter_bidder], ptr %44, i64 0, i64 0
  %46 = load i32, ptr %11, align 4, !tbaa !38
  %47 = sext i32 %46 to i64
  %48 = getelementptr inbounds %struct.archive_read_filter_bidder, ptr %45, i64 %47
  call void @llvm.memset.p0.i64(ptr align 8 %48, i8 0, i64 24, i1 false)
  %49 = load ptr, ptr %6, align 8, !tbaa !4
  %50 = getelementptr inbounds nuw %struct.archive_read, ptr %49, i32 0, i32 6
  %51 = getelementptr inbounds [16 x %struct.archive_read_filter_bidder], ptr %50, i64 0, i64 0
  %52 = load i32, ptr %11, align 4, !tbaa !38
  %53 = sext i32 %52 to i64
  %54 = getelementptr inbounds %struct.archive_read_filter_bidder, ptr %51, i64 %53
  store ptr %54, ptr %10, align 8, !tbaa !71
  %55 = load ptr, ptr %7, align 8, !tbaa !37
  %56 = load ptr, ptr %10, align 8, !tbaa !71
  %57 = getelementptr inbounds nuw %struct.archive_read_filter_bidder, ptr %56, i32 0, i32 0
  store ptr %55, ptr %57, align 8, !tbaa !115
  %58 = load ptr, ptr %8, align 8, !tbaa !95
  %59 = load ptr, ptr %10, align 8, !tbaa !71
  %60 = getelementptr inbounds nuw %struct.archive_read_filter_bidder, ptr %59, i32 0, i32 1
  store ptr %58, ptr %60, align 8, !tbaa !116
  %61 = load ptr, ptr %9, align 8, !tbaa !114
  %62 = load ptr, ptr %10, align 8, !tbaa !71
  %63 = getelementptr inbounds nuw %struct.archive_read_filter_bidder, ptr %62, i32 0, i32 2
  store ptr %61, ptr %63, align 8, !tbaa !72
  %64 = load ptr, ptr %10, align 8, !tbaa !71
  %65 = getelementptr inbounds nuw %struct.archive_read_filter_bidder, ptr %64, i32 0, i32 2
  %66 = load ptr, ptr %65, align 8, !tbaa !72
  %67 = getelementptr inbounds nuw %struct.archive_read_filter_bidder_vtable, ptr %66, i32 0, i32 0
  %68 = load ptr, ptr %67, align 8, !tbaa !75
  %69 = icmp eq ptr %68, null
  br i1 %69, label %77, label %70

70:                                               ; preds = %42
  %71 = load ptr, ptr %10, align 8, !tbaa !71
  %72 = getelementptr inbounds nuw %struct.archive_read_filter_bidder, ptr %71, i32 0, i32 2
  %73 = load ptr, ptr %72, align 8, !tbaa !72
  %74 = getelementptr inbounds nuw %struct.archive_read_filter_bidder_vtable, ptr %73, i32 0, i32 1
  %75 = load ptr, ptr %74, align 8, !tbaa !78
  %76 = icmp eq ptr %75, null
  br i1 %76, label %77, label %80

77:                                               ; preds = %70, %42
  %78 = load ptr, ptr %6, align 8, !tbaa !4
  %79 = getelementptr inbounds nuw %struct.archive_read, ptr %78, i32 0, i32 0
  call void (ptr, i32, ptr, ...) @archive_set_error(ptr noundef %79, i32 noundef 22, ptr noundef @.str.22)
  store i32 -30, ptr %5, align 4
  store i32 1, ptr %14, align 4
  br label %87

80:                                               ; preds = %70
  store i32 0, ptr %5, align 4
  store i32 1, ptr %14, align 4
  br label %87

81:                                               ; preds = %41
  %82 = load i32, ptr %11, align 4, !tbaa !38
  %83 = add nsw i32 %82, 1
  store i32 %83, ptr %11, align 4, !tbaa !38
  br label %28, !llvm.loop !117

84:                                               ; preds = %28
  %85 = load ptr, ptr %6, align 8, !tbaa !4
  %86 = getelementptr inbounds nuw %struct.archive_read, ptr %85, i32 0, i32 0
  call void (ptr, i32, ptr, ...) @archive_set_error(ptr noundef %86, i32 noundef 12, ptr noundef @.str.23)
  store i32 -30, ptr %5, align 4
  store i32 1, ptr %14, align 4
  br label %87

87:                                               ; preds = %84, %80, %77, %23
  call void @llvm.lifetime.end.p0(i64 4, ptr %12) #11
  call void @llvm.lifetime.end.p0(i64 4, ptr %11) #11
  call void @llvm.lifetime.end.p0(i64 8, ptr %10) #11
  %88 = load i32, ptr %5, align 4
  ret i32 %88
}