; Function Attrs: nounwind uwtable
define dso_local range(i32 -30, 1) i32 @__archive_read_register_bidder(ptr noundef %0, ptr noundef %1, ptr noundef %2, ptr noundef %3) local_unnamed_addr #0 {
  %5 = tail call i32 @__archive_check_magic(ptr noundef %0, i32 noundef 14594245, i32 noundef 1, ptr noundef nonnull @.str.21) #15
  %.not = icmp eq i32 %5, -30
  br i1 %.not, label %22, label %.preheader

.preheader:                                       ; preds = %4
  %6 = getelementptr inbounds nuw i8, ptr %0, i64 248
  %invariant.gep = getelementptr inbounds nuw i8, ptr %0, i64 264
  br label %8

7:                                                ; preds = %8
  %indvars.iv.next = add nuw nsw i64 %indvars.iv, 1
  %exitcond.not = icmp eq i64 %indvars.iv.next, 16
  br i1 %exitcond.not, label %21, label %8, !llvm.loop !105

8:                                                ; preds = %.preheader, %7
  %indvars.iv = phi i64 [ 0, %.preheader ], [ %indvars.iv.next, %7 ]
  %.idx = mul nuw nsw i64 %indvars.iv, 24
  %gep = getelementptr inbounds nuw i8, ptr %invariant.gep, i64 %.idx
  %9 = load ptr, ptr %gep, align 8, !tbaa !56
  %.not24 = icmp eq ptr %9, null
  br i1 %.not24, label %10, label %7

10:                                               ; preds = %8
  %11 = getelementptr inbounds nuw %struct.archive_read_filter_bidder, ptr %6, i64 %indvars.iv
  store ptr %1, ptr %11, align 8, !tbaa !106
  %12 = getelementptr inbounds nuw i8, ptr %11, i64 8
  store ptr %2, ptr %12, align 8, !tbaa !107
  %13 = getelementptr inbounds nuw i8, ptr %11, i64 16
  store ptr %3, ptr %13, align 8, !tbaa !56
  %14 = load ptr, ptr %3, align 8, !tbaa !59
  %15 = icmp eq ptr %14, null
  br i1 %15, label %20, label %16

16:                                               ; preds = %10
  %17 = getelementptr inbounds nuw i8, ptr %3, i64 8
  %18 = load ptr, ptr %17, align 8, !tbaa !71
  %19 = icmp eq ptr %18, null
  br i1 %19, label %20, label %22

20:                                               ; preds = %16, %10
  tail call void (ptr, i32, ptr, ...) @archive_set_error(ptr noundef nonnull %0, i32 noundef 22, ptr noundef nonnull @.str.22) #15
  br label %22

21:                                               ; preds = %7
  tail call void (ptr, i32, ptr, ...) @archive_set_error(ptr noundef nonnull %0, i32 noundef 12, ptr noundef nonnull @.str.23) #15
  br label %22

22:                                               ; preds = %16, %4, %21, %20
  %.1 = phi i32 [ -30, %20 ], [ -30, %21 ], [ -30, %4 ], [ 0, %16 ]
  ret i32 %.1
}